target datalayout = "e-m:e-p270:32:32-p271:32:32-p272:64:64-i64:64-i128:128-f80:128-n8:16:32:64-S128"
target triple = "x86_64-pc-linux-gnu"

; Function Attrs: nounwind uwtable
define internal i32 @jactimes(ptr noundef %0, ptr noundef %1, ptr noundef %2, ptr noundef %3, ptr noundef %4) #0 {
  %6 = alloca ptr, align 8
  %7 = alloca ptr, align 8
  %8 = alloca ptr, align 8
  %9 = alloca ptr, align 8
  %10 = alloca ptr, align 8
  %11 = alloca double, align 8
  %12 = alloca double, align 8
  %13 = alloca double, align 8
  %14 = alloca double, align 8
  %15 = alloca double, align 8
  %16 = alloca double, align 8
  %17 = alloca double, align 8
  %18 = alloca double, align 8
  %19 = alloca double, align 8
  %20 = alloca double, align 8
  %21 = alloca double, align 8
  %22 = alloca ptr, align 8
  %23 = alloca ptr, align 8
  %24 = alloca i32, align 4
  %25 = alloca i32, align 4
  store ptr %0, ptr %6, align 8, !tbaa !4
  store ptr %1, ptr %7, align 8, !tbaa !4
  store ptr %2, ptr %8, align 8, !tbaa !4
  store ptr %3, ptr %9, align 8, !tbaa !22
  store ptr %4, ptr %10, align 8, !tbaa !9
  call void @llvm.lifetime.start.p0(i64 8, ptr %11) #5
  call void @llvm.lifetime.start.p0(i64 8, ptr %12) #5
  call void @llvm.lifetime.start.p0(i64 8, ptr %13) #5
  call void @llvm.lifetime.start.p0(i64 8, ptr %14) #5
  call void @llvm.lifetime.start.p0(i64 8, ptr %15) #5
  call void @llvm.lifetime.start.p0(i64 8, ptr %16) #5
  call void @llvm.lifetime.start.p0(i64 8, ptr %17) #5
  call void @llvm.lifetime.start.p0(i64 8, ptr %18) #5
  call void @llvm.lifetime.start.p0(i64 8, ptr %19) #5
  call void @llvm.lifetime.start.p0(i64 8, ptr %20) #5
  call void @llvm.lifetime.start.p0(i64 8, ptr %21) #5
  call void @llvm.lifetime.start.p0(i64 8, ptr %22) #5
  call void @llvm.lifetime.start.p0(i64 8, ptr %23) #5
  call void @llvm.lifetime.start.p0(i64 4, ptr %24) #5
  call void @llvm.lifetime.start.p0(i64 4, ptr %25) #5
  store double 3.125000e-02, ptr %11, align 8, !tbaa !16
  store double 3.125000e-02, ptr %12, align 8, !tbaa !16
  %26 = load double, ptr %11, align 8, !tbaa !16
  %27 = load double, ptr %11, align 8, !tbaa !16
  %28 = fmul double %26, %27
  %29 = fdiv double 1.000000e+00, %28
  store double %29, ptr %15, align 8, !tbaa !16
  %30 = load double, ptr %12, align 8, !tbaa !16
  %31 = load double, ptr %12, align 8, !tbaa !16
  %32 = fmul double %30, %31
  %33 = fdiv double 1.000000e+00, %32
  store double %33, ptr %16, align 8, !tbaa !16
  %34 = load ptr, ptr %6, align 8, !tbaa !4
  %35 = call ptr @N_VGetArrayPointer(ptr noundef %34)
  store ptr %35, ptr %22, align 8, !tbaa !24
  %36 = load ptr, ptr %7, align 8, !tbaa !4
  %37 = call ptr @N_VGetArrayPointer(ptr noundef %36)
  store ptr %37, ptr %23, align 8, !tbaa !24
  store i32 1, ptr %25, align 4, !tbaa !12
  br label %38

38:                                               ; preds = %154, %5
  %39 = load i32, ptr %25, align 4, !tbaa !12
  %40 = icmp sle i32 %39, 31
  br i1 %40, label %41, label %157

41:                                               ; preds = %38
  store i32 1, ptr %24, align 4, !tbaa !12
  br label %42

42:                                               ; preds = %150, %41
  %43 = load i32, ptr %24, align 4, !tbaa !12
  %44 = icmp sle i32 %43, 31
  br i1 %44, label %45, label %153

45:                                               ; preds = %42
  %46 = load ptr, ptr %22, align 8, !tbaa !24
  %47 = load i32, ptr %25, align 4, !tbaa !12
  %48 = sub nsw i32 %47, 1
  %49 = load i32, ptr %24, align 4, !tbaa !12
  %50 = sub nsw i32 %49, 1
  %51 = mul nsw i32 %50, 31
  %52 = add nsw i32 %48, %51
  %53 = sext i32 %52 to i64
  %54 = getelementptr inbounds double, ptr %46, i64 %53
  %55 = load double, ptr %54, align 8, !tbaa !16
  store double %55, ptr %17, align 8, !tbaa !16
  %56 = load i32, ptr %25, align 4, !tbaa !12
  %57 = icmp eq i32 %56, 1
  br i1 %57, label %58, label %59

58:                                               ; preds = %45
  br label %71

59:                                               ; preds = %45
  %60 = load ptr, ptr %22, align 8, !tbaa !24
  %61 = load i32, ptr %25, align 4, !tbaa !12
  %62 = sub nsw i32 %61, 1
  %63 = sub nsw i32 %62, 1
  %64 = load i32, ptr %24, align 4, !tbaa !12
  %65 = sub nsw i32 %64, 1
  %66 = mul nsw i32 %65, 31
  %67 = add nsw i32 %63, %66
  %68 = sext i32 %67 to i64
  %69 = getelementptr inbounds double, ptr %60, i64 %68
  %70 = load double, ptr %69, align 8, !tbaa !16
  br label %71

71:                                               ; preds = %59, %58
  %72 = phi double [ 0.000000e+00, %58 ], [ %70, %59 ]
  store double %72, ptr %18, align 8, !tbaa !16
  %73 = load i32, ptr %25, align 4, !tbaa !12
  %74 = icmp eq i32 %73, 31
  br i1 %74, label %75, label %76

75:                                               ; preds = %71
  br label %88

76:                                               ; preds = %71
  %77 = load ptr, ptr %22, align 8, !tbaa !24
  %78 = load i32, ptr %25, align 4, !tbaa !12
  %79 = add nsw i32 %78, 1
  %80 = sub nsw i32 %79, 1
  %81 = load i32, ptr %24, align 4, !tbaa !12
  %82 = sub nsw i32 %81, 1
  %83 = mul nsw i32 %82, 31
  %84 = add nsw i32 %80, %83
  %85 = sext i32 %84 to i64
  %86 = getelementptr inbounds double, ptr %77, i64 %85
  %87 = load double, ptr %86, align 8, !tbaa !16
  br label %88

88:                                               ; preds = %76, %75
  %89 = phi double [ 0.000000e+00, %75 ], [ %87, %76 ]
  store double %89, ptr %19, align 8, !tbaa !16
  %90 = load i32, ptr %24, align 4, !tbaa !12
  %91 = icmp eq i32 %90, 1
  br i1 %91, label %92, label %93

92:                                               ; preds = %88
  br label %105

93:                                               ; preds = %88
  %94 = load ptr, ptr %22, align 8, !tbaa !24
  %95 = load i32, ptr %25, align 4, !tbaa !12
  %96 = sub nsw i32 %95, 1
  %97 = load i32, ptr %24, align 4, !tbaa !12
  %98 = sub nsw i32 %97, 1
  %99 = sub nsw i32 %98, 1
  %100 = mul nsw i32 %99, 31
  %101 = add nsw i32 %96, %100
  %102 = sext i32 %101 to i64
  %103 = getelementptr inbounds double, ptr %94, i64 %102
  %104 = load double, ptr %103, align 8, !tbaa !16
  br label %105

105:                                              ; preds = %93, %92
  %106 = phi double [ 0.000000e+00, %92 ], [ %104, %93 ]
  store double %106, ptr %20, align 8, !tbaa !16
  %107 = load i32, ptr %24, align 4, !tbaa !12
  %108 = icmp eq i32 %107, 31
  br i1 %108, label %109, label %110

109:                                              ; preds = %105
  br label %122

110:                                              ; preds = %105
  %111 = load ptr, ptr %22, align 8, !tbaa !24
  %112 = load i32, ptr %25, align 4, !tbaa !12
  %113 = sub nsw i32 %112, 1
  %114 = load i32, ptr %24, align 4, !tbaa !12
  %115 = add nsw i32 %114, 1
  %116 = sub nsw i32 %115, 1
  %117 = mul nsw i32 %116, 31
  %118 = add nsw i32 %113, %117
  %119 = sext i32 %118 to i64
  %120 = getelementptr inbounds double, ptr %111, i64 %119
  %121 = load double, ptr %120, align 8, !tbaa !16
  br label %122

122:                                              ; preds = %110, %109
  %123 = phi double [ 0.000000e+00, %109 ], [ %121, %110 ]
  store double %123, ptr %21, align 8, !tbaa !16
  %124 = load double, ptr %15, align 8, !tbaa !16
  %125 = load double, ptr %20, align 8, !tbaa !16
  %126 = load double, ptr %17, align 8, !tbaa !16
  %127 = call double @llvm.fmuladd.f64(double -2.000000e+00, double %126, double %125)
  %128 = load double, ptr %21, align 8, !tbaa !16
  %129 = fadd double %127, %128
  %130 = fmul double %124, %129
  store double %130, ptr %13, align 8, !tbaa !16
  %131 = load double, ptr %16, align 8, !tbaa !16
  %132 = load double, ptr %19, align 8, !tbaa !16
  %133 = load double, ptr %17, align 8, !tbaa !16
  %134 = call double @llvm.fmuladd.f64(double -2.000000e+00, double %133, double %132)
  %135 = load double, ptr %18, align 8, !tbaa !16
  %136 = fadd double %134, %135
  %137 = fmul double %131, %136
  store double %137, ptr %14, align 8, !tbaa !16
  %138 = load double, ptr %13, align 8, !tbaa !16
  %139 = load double, ptr %14, align 8, !tbaa !16
  %140 = fadd double %138, %139
  %141 = load ptr, ptr %23, align 8, !tbaa !24
  %142 = load i32, ptr %25, align 4, !tbaa !12
  %143 = sub nsw i32 %142, 1
  %144 = load i32, ptr %24, align 4, !tbaa !12
  %145 = sub nsw i32 %144, 1
  %146 = mul nsw i32 %145, 31
  %147 = add nsw i32 %143, %146
  %148 = sext i32 %147 to i64
  %149 = getelementptr inbounds double, ptr %141, i64 %148
  store double %140, ptr %149, align 8, !tbaa !16
  br label %150

150:                                              ; preds = %122
  %151 = load i32, ptr %24, align 4, !tbaa !12
  %152 = add nsw i32 %151, 1
  store i32 %152, ptr %24, align 4, !tbaa !12
  br label %42

153:                                              ; preds = %42
  br label %154

154:                                              ; preds = %153
  %155 = load i32, ptr %25, align 4, !tbaa !12
  %156 = add nsw i32 %155, 1
  store i32 %156, ptr %25, align 4, !tbaa !12
  br label %38

157:                                              ; preds = %38
  call void @llvm.lifetime.end.p0(i64 4, ptr %25) #5
  call void @llvm.lifetime.end.p0(i64 4, ptr %24) #5
  call void @llvm.lifetime.end.p0(i64 8, ptr %23) #5
  call void @llvm.lifetime.end.p0(i64 8, ptr %22) #5
  call void @llvm.lifetime.end.p0(i64 8, ptr %21) #5
  call void @llvm.lifetime.end.p0(i64 8, ptr %20) #5
  call void @llvm.lifetime.end.p0(i64 8, ptr %19) #5
  call void @llvm.lifetime.end.p0(i64 8, ptr %18) #5
  call void @llvm.lifetime.end.p0(i64 8, ptr %17) #5
  call void @llvm.lifetime.end.p0(i64 8, ptr %16) #5
  call void @llvm.lifetime.end.p0(i64 8, ptr %15) #5
  call void @llvm.lifetime.end.p0(i64 8, ptr %14) #5
  call void @llvm.lifetime.end.p0(i64 8, ptr %13) #5
  call void @llvm.lifetime.end.p0(i64 8, ptr %12) #5
  call void @llvm.lifetime.end.p0(i64 8, ptr %11) #5
  ret i32 0
}