; Function Attrs: nounwind uwtable
define internal noundef i32 @jactimes(ptr noundef %0, ptr noundef %1, ptr readnone captures(none) %2, ptr readnone captures(none) %3, ptr readnone captures(none) %4) #0 {
  %6 = tail call ptr @N_VGetArrayPointer(ptr noundef %0) #6
  %7 = tail call ptr @N_VGetArrayPointer(ptr noundef %1) #6
  %invariant.gep74 = getelementptr i8, ptr %6, i64 -16
  %invariant.gep70 = getelementptr i8, ptr %6, i64 -240
  br label %.preheader

.preheader:                                       ; preds = %5, %.split.us
  %indvars.iv59 = phi i64 [ 1, %5 ], [ %indvars.iv.next60, %.split.us ]
  %8 = add nsw i64 %indvars.iv59, -1
  %9 = icmp eq i64 %indvars.iv59, 1
  %10 = add nuw nsw i64 %indvars.iv59, -63
  %11 = icmp eq i64 %indvars.iv59, 31
  br i1 %9, label %.preheader.split.us, label %.preheader.split.preheader

.preheader.split.preheader:                       ; preds = %.preheader
  %gep75 = getelementptr double, ptr %invariant.gep74, i64 %indvars.iv59
  %invariant.gep = getelementptr double, ptr %6, i64 %indvars.iv59
  %invariant.gep66 = getelementptr double, ptr %6, i64 %10
  %invariant.gep68 = getelementptr double, ptr %6, i64 %8
  br label %.preheader.split

.preheader.split.us:                              ; preds = %.preheader
  %invariant.gep72 = getelementptr double, ptr %6, i64 %10
  br label %.thread.us

.thread.us:                                       ; preds = %24, %.preheader.split.us
  %indvars.iv52 = phi i64 [ %indvars.iv.next53, %24 ], [ 1, %.preheader.split.us ]
  %12 = mul nuw nsw i64 %indvars.iv52, 31
  %13 = add nsw i64 %12, -31
  %14 = getelementptr inbounds double, ptr %6, i64 %13
  %15 = load double, ptr %14, align 8, !tbaa !12
  %gep71 = getelementptr double, ptr %invariant.gep70, i64 %12
  %16 = load double, ptr %gep71, align 8, !tbaa !12
  %17 = icmp eq i64 %indvars.iv52, 1
  br i1 %17, label %.thread42.us, label %18

18:                                               ; preds = %.thread.us
  %gep73 = getelementptr double, ptr %invariant.gep72, i64 %12
  %19 = load double, ptr %gep73, align 8, !tbaa !12
  %20 = icmp eq i64 %indvars.iv52, 31
  br i1 %20, label %24, label %.thread42.us

.thread42.us:                                     ; preds = %18, %.thread.us
  %21 = phi double [ %19, %18 ], [ 0.000000e+00, %.thread.us ]
  %22 = getelementptr inbounds nuw double, ptr %6, i64 %12
  %23 = load double, ptr %22, align 8, !tbaa !12
  br label %24

24:                                               ; preds = %.thread42.us, %18
  %25 = phi double [ %21, %.thread42.us ], [ %19, %18 ]
  %26 = phi double [ %23, %.thread42.us ], [ 0.000000e+00, %18 ]
  %27 = tail call double @llvm.fmuladd.f64(double %15, double -2.000000e+00, double %25)
  %28 = fadd double %27, %26
  %29 = fmul double %28, 1.024000e+03
  %30 = tail call double @llvm.fmuladd.f64(double %15, double -2.000000e+00, double %16)
  %31 = fadd double %30, 0.000000e+00
  %32 = fmul double %31, 1.024000e+03
  %33 = fadd double %32, %29
  %34 = getelementptr inbounds double, ptr %7, i64 %13
  store double %33, ptr %34, align 8, !tbaa !12
  %indvars.iv.next53 = add nuw nsw i64 %indvars.iv52, 1
  %exitcond58.not = icmp eq i64 %indvars.iv.next53, 32
  br i1 %exitcond58.not, label %.split.us, label %.thread.us

.preheader.split:                                 ; preds = %.preheader.split.preheader, %51
  %indvars.iv = phi i64 [ 1, %.preheader.split.preheader ], [ %indvars.iv.next, %51 ]
  %35 = mul nuw nsw i64 %indvars.iv, 31
  %36 = add nsw i64 %35, -31
  %37 = add nuw nsw i64 %36, %8
  %38 = getelementptr inbounds double, ptr %6, i64 %37
  %39 = load double, ptr %38, align 8, !tbaa !12
  %40 = getelementptr double, ptr %gep75, i64 %36
  %41 = load double, ptr %40, align 8, !tbaa !12
  br i1 %11, label %43, label %.thread

.thread:                                          ; preds = %.preheader.split
  %gep = getelementptr double, ptr %invariant.gep, i64 %36
  %42 = load double, ptr %gep, align 8, !tbaa !12
  br label %43

43:                                               ; preds = %.preheader.split, %.thread
  %44 = phi double [ %42, %.thread ], [ 0.000000e+00, %.preheader.split ]
  %45 = icmp eq i64 %indvars.iv, 1
  br i1 %45, label %.thread42, label %46

46:                                               ; preds = %43
  %gep67 = getelementptr double, ptr %invariant.gep66, i64 %35
  %47 = load double, ptr %gep67, align 8, !tbaa !12
  %48 = icmp eq i64 %indvars.iv, 31
  br i1 %48, label %51, label %.thread42

.thread42:                                        ; preds = %43, %46
  %49 = phi double [ %47, %46 ], [ 0.000000e+00, %43 ]
  %gep69 = getelementptr double, ptr %invariant.gep68, i64 %35
  %50 = load double, ptr %gep69, align 8, !tbaa !12
  br label %51

51:                                               ; preds = %46, %.thread42
  %52 = phi double [ %49, %.thread42 ], [ %47, %46 ]
  %53 = phi double [ %50, %.thread42 ], [ 0.000000e+00, %46 ]
  %54 = tail call double @llvm.fmuladd.f64(double %39, double -2.000000e+00, double %52)
  %55 = fadd double %54, %53
  %56 = fmul double %55, 1.024000e+03
  %57 = tail call double @llvm.fmuladd.f64(double %39, double -2.000000e+00, double %44)
  %58 = fadd double %41, %57
  %59 = fmul double %58, 1.024000e+03
  %60 = fadd double %59, %56
  %61 = getelementptr inbounds double, ptr %7, i64 %37
  store double %60, ptr %61, align 8, !tbaa !12
  %indvars.iv.next = add nuw nsw i64 %indvars.iv, 1
  %exitcond.not = icmp eq i64 %indvars.iv.next, 32
  br i1 %exitcond.not, label %.split.us, label %.preheader.split

.split.us:                                        ; preds = %51, %24
  %indvars.iv.next60 = add nuw nsw i64 %indvars.iv59, 1
  %exitcond64.not = icmp eq i64 %indvars.iv.next60, 32
  br i1 %exitcond64.not, label %62, label %.preheader

62:                                               ; preds = %.split.us
  ret i32 0
}